; ModuleID = '45/137.c'
source_filename = "45/137.c"
target datalayout = "e-m:e-p270:32:32-p271:32:32-p272:64:64-i64:64-f80:128-n8:16:32:64-S128"
target triple = "x86_64-pc-linux-gnu"

@.str = private unnamed_addr constant [6 x i8] c"%s %s\00", align 1
@.str.1 = private unnamed_addr constant [3 x i8] c"%d\00", align 1

; Function Attrs: noinline nounwind uwtable
define dso_local i32 @main(i32 %0, i8** %1) #0 {
  %3 = alloca i32, align 4
  %4 = alloca i32, align 4
  %5 = alloca i8**, align 8
  %6 = alloca [50 x i8], align 16
  %7 = alloca [50 x i8], align 16
  %8 = alloca i8*, align 8
  %9 = alloca i8*, align 8
  %10 = alloca i8*, align 8
  %11 = alloca i32, align 4
  %12 = alloca i32, align 4
  %13 = alloca i32, align 4
  store i32 0, i32* %3, align 4
  store i32 %0, i32* %4, align 4
  store i8** %1, i8*** %5, align 8
  %14 = getelementptr inbounds [50 x i8], [50 x i8]* %6, i64 0, i64 0
  %15 = getelementptr inbounds [50 x i8], [50 x i8]* %7, i64 0, i64 0
  %16 = call i32 (i8*, ...) @__isoc99_scanf(i8* getelementptr inbounds ([6 x i8], [6 x i8]* @.str, i64 0, i64 0), i8* %14, i8* %15)
  store i32 0, i32* %13, align 4
  %17 = getelementptr inbounds [50 x i8], [50 x i8]* %6, i64 0, i64 0
  store i8* %17, i8** %10, align 8
  br label %18

18:                                               ; preds = %26, %2
  %19 = load i8*, i8** %10, align 8
  %20 = load i8, i8* %19, align 1
  %21 = sext i8 %20 to i32
  %22 = icmp ne i32 %21, 0
  br i1 %22, label %23, label %29

23:                                               ; preds = %18
  %24 = load i32, i32* %13, align 4
  %25 = add nsw i32 %24, 1
  store i32 %25, i32* %13, align 4
  br label %26

26:                                               ; preds = %23
  %27 = load i8*, i8** %10, align 8
  %28 = getelementptr inbounds i8, i8* %27, i32 1
  store i8* %28, i8** %10, align 8
  br label %18

29:                                               ; preds = %18
  store i32 0, i32* %12, align 4
  store i32 0, i32* %11, align 4
  %30 = getelementptr inbounds [50 x i8], [50 x i8]* %7, i64 0, i64 0
  store i8* %30, i8** %9, align 8
  br label %31

31:                                               ; preds = %88, %29
  %32 = load i8*, i8** %9, align 8
  %33 = load i8, i8* %32, align 1
  %34 = sext i8 %33 to i32
  %35 = icmp ne i32 %34, 0
  br i1 %35, label %36, label %91

36:                                               ; preds = %31
  %37 = getelementptr inbounds [50 x i8], [50 x i8]* %6, i64 0, i64 0
  store i8* %37, i8** %8, align 8
  br label %38

38:                                               ; preds = %69, %36
  %39 = load i8*, i8** %8, align 8
  %40 = load i8, i8* %39, align 1
  %41 = sext i8 %40 to i32
  %42 = icmp ne i32 %41, 0
  br i1 %42, label %43, label %56

43:                                               ; preds = %38
  %44 = load i8*, i8** %9, align 8
  %45 = load i8, i8* %44, align 1
  %46 = sext i8 %45 to i32
  %47 = icmp ne i32 %46, 0
  br i1 %47, label %48, label %56

48:                                               ; preds = %43
  %49 = load i8*, i8** %9, align 8
  %50 = load i8, i8* %49, align 1
  %51 = sext i8 %50 to i32
  %52 = load i8*, i8** %8, align 8
  %53 = load i8, i8* %52, align 1
  %54 = sext i8 %53 to i32
  %55 = icmp eq i32 %51, %54
  br label %56

56:                                               ; preds = %48, %43, %38
  %57 = phi i1 [ false, %43 ], [ false, %38 ], [ %55, %48 ]
  br i1 %57, label %58, label %72

58:                                               ; preds = %56
  %59 = load i32, i32* %11, align 4
  %60 = add nsw i32 %59, 1
  store i32 %60, i32* %11, align 4
  br label %61

61:                                               ; preds = %58
  %62 = load i8*, i8** %8, align 8
  %63 = getelementptr inbounds i8, i8* %62, i32 1
  store i8* %63, i8** %8, align 8
  %64 = icmp ne i8* %62, null
  br i1 %64, label %65, label %69

65:                                               ; preds = %61
  %66 = load i8*, i8** %9, align 8
  %67 = getelementptr inbounds i8, i8* %66, i32 1
  store i8* %67, i8** %9, align 8
  %68 = icmp ne i8* %66, null
  br label %69

69:                                               ; preds = %65, %61
  %70 = phi i1 [ false, %61 ], [ %68, %65 ]
  %71 = zext i1 %70 to i32
  br label %38

72:                                               ; preds = %56
  %73 = load i32, i32* %11, align 4
  %74 = load i32, i32* %13, align 4
  %75 = icmp eq i32 %73, %74
  br i1 %75, label %76, label %79

76:                                               ; preds = %72
  %77 = load i32, i32* %12, align 4
  %78 = call i32 (i8*, ...) @printf(i8* getelementptr inbounds ([3 x i8], [3 x i8]* @.str.1, i64 0, i64 0), i32 %77)
  br label %91

79:                                               ; preds = %72
  br label %80

80:                                               ; preds = %79
  %81 = load i8*, i8** %9, align 8
  %82 = getelementptr inbounds i8, i8* %81, i32 1
  store i8* %82, i8** %9, align 8
  %83 = icmp ne i8* %81, null
  br i1 %83, label %84, label %88

84:                                               ; preds = %80
  %85 = load i32, i32* %12, align 4
  %86 = add nsw i32 %85, 1
  store i32 %86, i32* %12, align 4
  %87 = icmp ne i32 %85, 0
  br label %88

88:                                               ; preds = %84, %80
  %89 = phi i1 [ false, %80 ], [ %87, %84 ]
  %90 = zext i1 %89 to i32
  br label %31

91:                                               ; preds = %76, %31
  ret i32 0
}

declare dso_local i32 @__isoc99_scanf(i8*, ...) #1

declare dso_local i32 @printf(i8*, ...) #1


!llvm.module.flags = !{!0}
!llvm.ident = !{!1}

!0 = !{i32 1, !"wchar_size", i32 4}
!1 = !{!"clang version 10.0.0-4ubuntu1 "}
